target datalayout = "e-m:e-p270:32:32-p271:32:32-p272:64:64-i64:64-i128:128-f80:128-n8:16:32:64-S128"
target triple = "x86_64-pc-linux-gnu"

%struct.node_t = type { ptr }

@stderr = external global ptr, align 8
@.str = private unnamed_addr constant [30 x i8] c"Assertion failed: %s (%s:%d)\0A\00", align 1
@.str.2 = private unnamed_addr constant [110 x i8] c"generated/home/dtcxzyw/WorkSpace/Projects/compilers/llvm-opt-benchmark/bench/libzmq/libzmq/src/radix_tree.cpp\00", align 1
@.str.4 = private unnamed_addr constant [5 x i8] c"data\00", align 1
@_ZN6node_tC1EPh = unnamed_addr alias void (ptr, ptr), ptr @_ZN6node_tC2EPh

; Function Attrs: mustprogress nounwind uwtable
define void @_ZN6node_t13set_edgecountEj(ptr noundef nonnull align 8 dereferenceable(8) %0, i32 noundef %1) #0 align 2 {
  %3 = alloca ptr, align 8
  %4 = alloca i32, align 4
  store ptr %0, ptr %3, align 8, !tbaa !3
  store i32 %1, ptr %4, align 4, !tbaa !12
  %5 = load ptr, ptr %3, align 8
  %6 = getelementptr inbounds nuw %struct.node_t, ptr %5, i32 0, i32 0
  %7 = load ptr, ptr %6, align 8, !tbaa !10
  %8 = getelementptr inbounds nuw i8, ptr %7, i64 8
  call void @llvm.memcpy.p0.p0.i64(ptr align 1 %8, ptr align 4 %4, i64 4, i1 false)
  ret void
}

; Function Attrs: mustprogress nounwind uwtable
define void @_ZN6node_t17set_prefix_lengthEj(ptr noundef nonnull align 8 dereferenceable(8) %0, i32 noundef %1) #0 align 2 {
  %3 = alloca ptr, align 8
  %4 = alloca i32, align 4
  store ptr %0, ptr %3, align 8, !tbaa !3
  store i32 %1, ptr %4, align 4, !tbaa !12
  %5 = load ptr, ptr %3, align 8
  %6 = getelementptr inbounds nuw %struct.node_t, ptr %5, i32 0, i32 0
  %7 = load ptr, ptr %6, align 8, !tbaa !10
  %8 = getelementptr inbounds nuw i8, ptr %7, i64 4
  call void @llvm.memcpy.p0.p0.i64(ptr align 1 %8, ptr align 4 %4, i64 4, i1 false)
  ret void
}

; Function Attrs: mustprogress nounwind uwtable
define void @_ZN6node_t12set_refcountEj(ptr noundef nonnull align 8 dereferenceable(8) %0, i32 noundef %1) #0 align 2 {
  %3 = alloca ptr, align 8
  %4 = alloca i32, align 4
  store ptr %0, ptr %3, align 8, !tbaa !3
  store i32 %1, ptr %4, align 4, !tbaa !12
  %5 = load ptr, ptr %3, align 8
  %6 = getelementptr inbounds nuw %struct.node_t, ptr %5, i32 0, i32 0
  %7 = load ptr, ptr %6, align 8, !tbaa !10
  call void @llvm.memcpy.p0.p0.i64(ptr align 1 %7, ptr align 4 %4, i64 4, i1 false)
  ret void
}

; Function Attrs: mustprogress uwtable
define ptr @_Z9make_nodemmm(i64 noundef %0, i64 noundef %1, i64 noundef %2) #3 {
  %4 = alloca %struct.node_t, align 8
  %5 = alloca i64, align 8
  %6 = alloca i64, align 8
  %7 = alloca i64, align 8
  %8 = alloca i64, align 8
  %9 = alloca ptr, align 8
  store i64 %0, ptr %5, align 8, !tbaa !14
  store i64 %1, ptr %6, align 8, !tbaa !14
  store i64 %2, ptr %7, align 8, !tbaa !14
  call void @llvm.lifetime.start.p0(i64 8, ptr %8) #17
  %10 = load i64, ptr %6, align 8, !tbaa !14
  %11 = add i64 12, %10
  %12 = load i64, ptr %7, align 8, !tbaa !14
  %13 = mul i64 %12, 9
  %14 = add i64 %11, %13
  store i64 %14, ptr %8, align 8, !tbaa !14
  call void @llvm.lifetime.start.p0(i64 8, ptr %9) #17
  %15 = load i64, ptr %8, align 8, !tbaa !14
  %16 = call noalias ptr @malloc(i64 noundef %15) #19
  store ptr %16, ptr %9, align 8, !tbaa !8
  br label %17

17:                                               ; preds = %3
  %18 = load ptr, ptr %9, align 8, !tbaa !8
  %19 = icmp ne ptr %18, null
  %20 = xor i1 %19, true
  %21 = zext i1 %20 to i64
  %22 = call i64 @llvm.expect.i64(i64 %21, i64 0)
  %23 = icmp ne i64 %22, 0
  br i1 %23, label %24, label %29

24:                                               ; preds = %17
  %25 = load ptr, ptr @stderr, align 8, !tbaa !16
  %26 = call i32 (ptr, ptr, ...) @fprintf(ptr noundef %25, ptr noundef @.str, ptr noundef @.str.4, ptr noundef @.str.2, i32 noundef 147) #17
  %27 = load ptr, ptr @stderr, align 8, !tbaa !16
  %28 = call i32 @fflush(ptr noundef %27)
  call void @_ZN3zmq9zmq_abortEPKc(ptr noundef @.str.4)
  br label %29

29:                                               ; preds = %24, %17
  br label %30

30:                                               ; preds = %29
  br label %31

31:                                               ; preds = %30
  %32 = load ptr, ptr %9, align 8, !tbaa !8
  call void @_ZN6node_tC1EPh(ptr noundef nonnull align 8 dereferenceable(8) %4, ptr noundef %32)
  %33 = load i64, ptr %5, align 8, !tbaa !14
  %34 = trunc i64 %33 to i32
  call void @_ZN6node_t12set_refcountEj(ptr noundef nonnull align 8 dereferenceable(8) %4, i32 noundef %34)
  %35 = load i64, ptr %6, align 8, !tbaa !14
  %36 = trunc i64 %35 to i32
  call void @_ZN6node_t17set_prefix_lengthEj(ptr noundef nonnull align 8 dereferenceable(8) %4, i32 noundef %36)
  %37 = load i64, ptr %7, align 8, !tbaa !14
  %38 = trunc i64 %37 to i32
  call void @_ZN6node_t13set_edgecountEj(ptr noundef nonnull align 8 dereferenceable(8) %4, i32 noundef %38)
  call void @llvm.lifetime.end.p0(i64 8, ptr %9) #17
  call void @llvm.lifetime.end.p0(i64 8, ptr %8) #17
  %39 = getelementptr inbounds nuw %struct.node_t, ptr %4, i32 0, i32 0
  %40 = load ptr, ptr %39, align 8
  ret ptr %40
}