; Function Attrs: mustprogress uwtable
define ptr @_Z9make_nodemmm(i64 noundef %0, i64 noundef %1, i64 noundef %2) local_unnamed_addr #7 {
  %4 = alloca %struct.node_t, align 8
  %5 = add i64 %1, 12
  %6 = mul i64 %2, 9
  %7 = add i64 %5, %6
  %8 = tail call noalias ptr @malloc(i64 noundef %7) #25
  %.not = icmp eq ptr %8, null
  br i1 %.not, label %9, label %14, !prof !13

9:                                                ; preds = %3
  %10 = load ptr, ptr @stderr, align 8, !tbaa !10
  %11 = tail call i32 (ptr, ptr, ...) @fprintf(ptr noundef %10, ptr noundef nonnull @.str, ptr noundef nonnull @.str.4, ptr noundef nonnull @.str.2, i32 noundef 147) #23
  %12 = load ptr, ptr @stderr, align 8, !tbaa !10
  %13 = tail call i32 @fflush(ptr noundef %12)
  tail call void @_ZN3zmq9zmq_abortEPKc(ptr noundef nonnull @.str.4)
  br label %14

14:                                               ; preds = %9, %3
  call void @_ZN6node_tC1EPh(ptr noundef nonnull align 8 dereferenceable(8) %4, ptr noundef %8)
  %15 = trunc i64 %0 to i32
  %16 = load ptr, ptr %4, align 8, !tbaa !3
  store i32 %15, ptr %16, align 1
  %17 = trunc i64 %1 to i32
  %18 = load ptr, ptr %4, align 8, !tbaa !3
  %19 = getelementptr inbounds nuw i8, ptr %18, i64 4
  store i32 %17, ptr %19, align 1
  %20 = trunc i64 %2 to i32
  %21 = load ptr, ptr %4, align 8, !tbaa !3
  %22 = getelementptr inbounds nuw i8, ptr %21, i64 8
  store i32 %20, ptr %22, align 1
  ret ptr %21
}